; Function Attrs: mustprogress nounwind uwtable
define hidden noundef ptr @_ZN12GraphBuilder33copy_state_for_exception_with_bciEi(ptr nocapture noundef nonnull readonly align 8 dereferenceable(97) %0, i32 noundef %1) local_unnamed_addr #0 align 2 {
  %3 = load ptr, ptr %0, align 8
  %4 = getelementptr inbounds i8, ptr %3, i64 24
  %5 = load i8, ptr %4, align 8
  %6 = trunc i8 %5 to i1
  br i1 %6, label %7, label %._crit_edge

._crit_edge:                                      ; preds = %2
  %.pre = tail call align 8 ptr @llvm.threadlocal.address.p0(ptr align 8 @_ZN6Thread12_thr_currentE)
  br label %29

7:                                                ; preds = %2
  %8 = getelementptr inbounds i8, ptr %0, i64 80
  %9 = load ptr, ptr %8, align 8
  %10 = tail call align 8 ptr @llvm.threadlocal.address.p0(ptr align 8 @_ZN6Thread12_thr_currentE)
  %11 = load ptr, ptr %10, align 8
  %12 = getelementptr inbounds i8, ptr %11, i64 1808
  %13 = load ptr, ptr %12, align 8
  %14 = getelementptr inbounds i8, ptr %13, i64 128
  %15 = load ptr, ptr %14, align 8
  %16 = load ptr, ptr %15, align 8
  %17 = getelementptr inbounds i8, ptr %16, i64 40
  %18 = load ptr, ptr %17, align 8
  %19 = getelementptr inbounds i8, ptr %16, i64 32
  %20 = load ptr, ptr %19, align 8
  %21 = ptrtoint ptr %18 to i64
  %22 = ptrtoint ptr %20 to i64
  %23 = sub i64 %21, %22
  %.not.i.i.i.i.i = icmp ult i64 %23, 88
  br i1 %.not.i.i.i.i.i, label %26, label %24

24:                                               ; preds = %7
  %25 = getelementptr inbounds i8, ptr %20, i64 88
  store ptr %25, ptr %19, align 8
  br label %_ZN22CompilationResourceObjnwEm.exit.i.i

26:                                               ; preds = %7
  %27 = tail call noundef ptr @_ZN5Arena4growEmN17AllocFailStrategy13AllocFailEnumE(ptr noundef nonnull align 8 dereferenceable(48) %16, i64 noundef 88, i32 noundef 0) #19
  br label %_ZN22CompilationResourceObjnwEm.exit.i.i

_ZN22CompilationResourceObjnwEm.exit.i.i:         ; preds = %26, %24
  %.0.i.i.i.i.i = phi ptr [ %20, %24 ], [ %27, %26 ]
  %28 = icmp eq ptr %.0.i.i.i.i.i, null
  br i1 %28, label %29, label %_ZN12GraphBuilder30copy_state_exhandling_with_bciEi.exit

_ZN12GraphBuilder30copy_state_exhandling_with_bciEi.exit: ; preds = %_ZN22CompilationResourceObjnwEm.exit.i.i
  tail call void @_ZN10ValueStackC1EPS_NS_4KindEi(ptr noundef nonnull align 8 dereferenceable(81) %.0.i.i.i.i.i, ptr noundef nonnull %9, i32 noundef 2, i32 noundef %1) #19
  br label %_ZN10ValueStack4copyENS_4KindEi.exit

29:                                               ; preds = %._crit_edge, %_ZN22CompilationResourceObjnwEm.exit.i.i
  %.pre-phi = phi ptr [ %.pre, %._crit_edge ], [ %10, %_ZN22CompilationResourceObjnwEm.exit.i.i ]
  %30 = load ptr, ptr %.pre-phi, align 8
  %31 = getelementptr inbounds i8, ptr %30, i64 1808
  %32 = load ptr, ptr %31, align 8
  %33 = getelementptr inbounds i8, ptr %32, i64 128
  %34 = load ptr, ptr %33, align 8
  %35 = getelementptr inbounds i8, ptr %34, i64 32
  %36 = load ptr, ptr %35, align 8
  %37 = getelementptr inbounds i8, ptr %36, i64 161
  %38 = load i8, ptr %37, align 1
  %39 = trunc i8 %38 to i1
  %40 = getelementptr inbounds i8, ptr %36, i64 163
  %41 = load i8, ptr %40, align 1
  %42 = trunc i8 %41 to i1
  %43 = select i1 %39, i1 true, i1 %42
  %44 = select i1 %43, i32 4, i32 5
  %45 = getelementptr inbounds i8, ptr %0, i64 80
  %46 = load ptr, ptr %45, align 8
  %47 = load ptr, ptr %34, align 8
  %48 = getelementptr inbounds i8, ptr %47, i64 40
  %49 = load ptr, ptr %48, align 8
  %50 = getelementptr inbounds i8, ptr %47, i64 32
  %51 = load ptr, ptr %50, align 8
  %52 = ptrtoint ptr %49 to i64
  %53 = ptrtoint ptr %51 to i64
  %54 = sub i64 %52, %53
  %.not.i.i.i.i = icmp ult i64 %54, 88
  br i1 %.not.i.i.i.i, label %57, label %55

55:                                               ; preds = %29
  %56 = getelementptr inbounds i8, ptr %51, i64 88
  store ptr %56, ptr %50, align 8
  br label %_ZN22CompilationResourceObjnwEm.exit.i

57:                                               ; preds = %29
  %58 = tail call noundef ptr @_ZN5Arena4growEmN17AllocFailStrategy13AllocFailEnumE(ptr noundef nonnull align 8 dereferenceable(48) %47, i64 noundef 88, i32 noundef 0) #19
  br label %_ZN22CompilationResourceObjnwEm.exit.i

_ZN22CompilationResourceObjnwEm.exit.i:           ; preds = %57, %55
  %.0.i.i.i.i = phi ptr [ %51, %55 ], [ %58, %57 ]
  %59 = icmp eq ptr %.0.i.i.i.i, null
  br i1 %59, label %_ZN10ValueStack4copyENS_4KindEi.exit, label %60

60:                                               ; preds = %_ZN22CompilationResourceObjnwEm.exit.i
  tail call void @_ZN10ValueStackC1EPS_NS_4KindEi(ptr noundef nonnull align 8 dereferenceable(81) %.0.i.i.i.i, ptr noundef nonnull %46, i32 noundef %44, i32 noundef %1) #19
  br label %_ZN10ValueStack4copyENS_4KindEi.exit

_ZN10ValueStack4copyENS_4KindEi.exit:             ; preds = %60, %_ZN22CompilationResourceObjnwEm.exit.i, %_ZN12GraphBuilder30copy_state_exhandling_with_bciEi.exit
  %.0 = phi ptr [ %.0.i.i.i.i.i, %_ZN12GraphBuilder30copy_state_exhandling_with_bciEi.exit ], [ null, %_ZN22CompilationResourceObjnwEm.exit.i ], [ %.0.i.i.i.i, %60 ]
  ret ptr %.0
}